target datalayout = "e-m:e-p270:32:32-p271:32:32-p272:64:64-i64:64-i128:128-f80:128-n8:16:32:64-S128"
target triple = "x86_64-pc-linux-gnu"

%struct.Vec_Int_t_ = type { i32, i32, ptr }

@s_Truths6 = internal global [6 x i64] [i64 -6148914691236517206, i64 -3689348814741910324, i64 -1085102592571150096, i64 -71777214294589696, i64 -281470681808896, i64 -4294967296], align 16

; Function Attrs: nounwind uwtable
define internal i32 @Abc_LitIsCompl(i32 noundef %0) #0 {
  %2 = alloca i32, align 4
  store i32 %0, ptr %2, align 4
  %3 = load i32, ptr %2, align 4
  %4 = and i32 %3, 1
  ret i32 %4
}

; Function Attrs: nounwind uwtable
define internal i32 @Abc_Lit2Var(i32 noundef %0) #0 {
  %2 = alloca i32, align 4
  store i32 %0, ptr %2, align 4
  %3 = load i32, ptr %2, align 4
  %4 = ashr i32 %3, 1
  ret i32 %4
}

; Function Attrs: nounwind uwtable
define internal i32 @Vec_IntEntry(ptr noundef %0, i32 noundef %1) #0 {
  %3 = alloca ptr, align 8
  %4 = alloca i32, align 4
  store ptr %0, ptr %3, align 8
  store i32 %1, ptr %4, align 4
  %5 = load ptr, ptr %3, align 8
  %6 = getelementptr inbounds %struct.Vec_Int_t_, ptr %5, i32 0, i32 2
  %7 = load ptr, ptr %6, align 8
  %8 = load i32, ptr %4, align 4
  %9 = sext i32 %8 to i64
  %10 = getelementptr inbounds i32, ptr %7, i64 %9
  %11 = load i32, ptr %10, align 4
  ret i32 %11
}

; Function Attrs: nounwind uwtable
define internal i32 @Abc_Var2Lit(i32 noundef %0, i32 noundef %1) #0 {
  %3 = alloca i32, align 4
  %4 = alloca i32, align 4
  store i32 %0, ptr %3, align 4
  store i32 %1, ptr %4, align 4
  %5 = load i32, ptr %3, align 4
  %6 = load i32, ptr %3, align 4
  %7 = add nsw i32 %5, %6
  %8 = load i32, ptr %4, align 4
  %9 = add nsw i32 %7, %8
  ret i32 %9
}

; Function Attrs: nounwind uwtable
define i64 @Gia_ResubToTruth6_rec(ptr noundef %0, i32 noundef %1, i32 noundef %2) #0 {
  %4 = alloca i64, align 8
  %5 = alloca ptr, align 8
  %6 = alloca i32, align 4
  %7 = alloca i32, align 4
  %8 = alloca i32, align 4
  %9 = alloca i32, align 4
  %10 = alloca i64, align 8
  %11 = alloca i64, align 8
  store ptr %0, ptr %5, align 8
  store i32 %1, ptr %6, align 4
  store i32 %2, ptr %7, align 4
  %12 = load i32, ptr %6, align 4
  %13 = load i32, ptr %7, align 4
  %14 = icmp slt i32 %12, %13
  br i1 %14, label %15, label %20

15:                                               ; preds = %3
  %16 = load i32, ptr %6, align 4
  %17 = sext i32 %16 to i64
  %18 = getelementptr inbounds [6 x i64], ptr @s_Truths6, i64 0, i64 %17
  %19 = load i64, ptr %18, align 8
  store i64 %19, ptr %4, align 8
  br label %78

20:                                               ; preds = %3
  %21 = load ptr, ptr %5, align 8
  %22 = load i32, ptr %6, align 4
  %23 = load i32, ptr %7, align 4
  %24 = sub nsw i32 %22, %23
  %25 = call i32 @Abc_Var2Lit(i32 noundef %24, i32 noundef 0)
  %26 = call i32 @Vec_IntEntry(ptr noundef %21, i32 noundef %25)
  store i32 %26, ptr %8, align 4
  %27 = load ptr, ptr %5, align 8
  %28 = load i32, ptr %6, align 4
  %29 = load i32, ptr %7, align 4
  %30 = sub nsw i32 %28, %29
  %31 = call i32 @Abc_Var2Lit(i32 noundef %30, i32 noundef 1)
  %32 = call i32 @Vec_IntEntry(ptr noundef %27, i32 noundef %31)
  store i32 %32, ptr %9, align 4
  %33 = load ptr, ptr %5, align 8
  %34 = load i32, ptr %8, align 4
  %35 = call i32 @Abc_Lit2Var(i32 noundef %34)
  %36 = sub nsw i32 %35, 2
  %37 = load i32, ptr %7, align 4
  %38 = call i64 @Gia_ResubToTruth6_rec(ptr noundef %33, i32 noundef %36, i32 noundef %37)
  store i64 %38, ptr %10, align 8
  %39 = load ptr, ptr %5, align 8
  %40 = load i32, ptr %9, align 4
  %41 = call i32 @Abc_Lit2Var(i32 noundef %40)
  %42 = sub nsw i32 %41, 2
  %43 = load i32, ptr %7, align 4
  %44 = call i64 @Gia_ResubToTruth6_rec(ptr noundef %39, i32 noundef %42, i32 noundef %43)
  store i64 %44, ptr %11, align 8
  %45 = load i32, ptr %8, align 4
  %46 = call i32 @Abc_LitIsCompl(i32 noundef %45)
  %47 = icmp ne i32 %46, 0
  br i1 %47, label %48, label %51

48:                                               ; preds = %20
  %49 = load i64, ptr %10, align 8
  %50 = xor i64 %49, -1
  br label %53

51:                                               ; preds = %20
  %52 = load i64, ptr %10, align 8
  br label %53

53:                                               ; preds = %51, %48
  %54 = phi i64 [ %50, %48 ], [ %52, %51 ]
  store i64 %54, ptr %10, align 8
  %55 = load i32, ptr %9, align 4
  %56 = call i32 @Abc_LitIsCompl(i32 noundef %55)
  %57 = icmp ne i32 %56, 0
  br i1 %57, label %58, label %61

58:                                               ; preds = %53
  %59 = load i64, ptr %11, align 8
  %60 = xor i64 %59, -1
  br label %63

61:                                               ; preds = %53
  %62 = load i64, ptr %11, align 8
  br label %63

63:                                               ; preds = %61, %58
  %64 = phi i64 [ %60, %58 ], [ %62, %61 ]
  store i64 %64, ptr %11, align 8
  %65 = load i32, ptr %8, align 4
  %66 = load i32, ptr %9, align 4
  %67 = icmp sgt i32 %65, %66
  br i1 %67, label %68, label %72

68:                                               ; preds = %63
  %69 = load i64, ptr %10, align 8
  %70 = load i64, ptr %11, align 8
  %71 = xor i64 %69, %70
  br label %76

72:                                               ; preds = %63
  %73 = load i64, ptr %10, align 8
  %74 = load i64, ptr %11, align 8
  %75 = and i64 %73, %74
  br label %76

76:                                               ; preds = %72, %68
  %77 = phi i64 [ %71, %68 ], [ %75, %72 ]
  store i64 %77, ptr %4, align 8
  br label %78

78:                                               ; preds = %76, %15
  %79 = load i64, ptr %4, align 8
  ret i64 %79
}