; Function Attrs: nofree nosync nounwind memory(read, inaccessiblemem: none) uwtable
define i64 @Gia_ResubToTruth6_rec(ptr noundef %0, i32 noundef %1, i32 noundef %2) local_unnamed_addr #1 {
  %4 = icmp slt i32 %1, %2
  br i1 %4, label %common.ret, label %8

common.ret:                                       ; preds = %3
  %5 = sext i32 %1 to i64
  %6 = getelementptr inbounds [6 x i64], ptr @s_Truths6, i64 0, i64 %5
  %7 = load i64, ptr %6, align 8
  br label %common.ret31

common.ret31:                                     ; preds = %8, %common.ret
  %common.ret31.op = phi i64 [ %7, %common.ret ], [ %34, %8 ]
  ret i64 %common.ret31.op

8:                                                ; preds = %3
  %9 = sub nsw i32 %1, %2
  %10 = shl nsw i32 %9, 1
  %11 = getelementptr i8, ptr %0, i64 8
  %.val = load ptr, ptr %11, align 8
  %12 = sext i32 %10 to i64
  %13 = getelementptr inbounds i32, ptr %.val, i64 %12
  %14 = load i32, ptr %13, align 4
  %15 = or disjoint i32 %10, 1
  %16 = sext i32 %15 to i64
  %17 = getelementptr inbounds i32, ptr %.val, i64 %16
  %18 = load i32, ptr %17, align 4
  %19 = ashr i32 %14, 1
  %20 = add nsw i32 %19, -2
  %21 = tail call i64 @Gia_ResubToTruth6_rec(ptr noundef %0, i32 noundef %20, i32 noundef %2)
  %22 = ashr i32 %18, 1
  %23 = add nsw i32 %22, -2
  %24 = tail call i64 @Gia_ResubToTruth6_rec(ptr noundef %0, i32 noundef %23, i32 noundef %2)
  %25 = and i32 %14, 1
  %sext = sub nsw i32 0, %25
  %26 = sext i32 %sext to i64
  %27 = xor i64 %21, %26
  %28 = and i32 %18, 1
  %sext29 = sub nsw i32 0, %28
  %29 = sext i32 %sext29 to i64
  %30 = xor i64 %24, %29
  %31 = icmp sgt i32 %14, %18
  %32 = xor i64 %30, %27
  %33 = and i64 %30, %27
  %34 = select i1 %31, i64 %32, i64 %33
  br label %common.ret31
}